target datalayout = "e-m:e-p270:32:32-p271:32:32-p272:64:64-i64:64-i128:128-f80:128-n8:16:32:64-S128"
target triple = "x86_64-unknown-linux-gnu"

%"class.euf::bv_plugin" = type { %"class.euf::plugin", %class.bv_util, %class.svector, %class.ptr_vector, %class.ptr_vector, i8, %class.ptr_vector }
%"class.euf::plugin" = type { ptr, ptr }
%class.bv_util = type { %class.bv_recognizers, ptr, ptr }
%class.bv_recognizers = type { i32 }
%class.svector = type { %class.vector }
%class.vector = type { ptr }
%class.ptr_vector = type { %class.vector.0 }
%class.vector.0 = type { ptr }
%"class.euf::justification" = type { i32, %union.anon, %union.anon.19 }
%union.anon = type { ptr }
%union.anon.19 = type { ptr }
%"class.euf::enode" = type { ptr, i8, i8, i8, i8, i8, i8, i8, i8, i8, i32, i32, i32, i32, i32, i32, %class.ptr_vector, ptr, ptr, ptr, ptr, %class.id_var_list, %"class.euf::justification", %"class.euf::justification", i32, i8, %class.approx_set, %class.approx_set, [0 x ptr] }
%class.id_var_list = type { i32, ptr }
%class.approx_set = type { %class.approx_set_tpl }
%class.approx_set_tpl = type { i64 }

; Function Attrs: mustprogress nounwind uwtable
define linkonce_odr hidden noundef i32 @_ZNK14bv_recognizers7get_fidEv(ptr noundef nonnull align 4 dereferenceable(4) %this) #4 comdat align 2 {
entry:
  %this.addr = alloca ptr, align 8
  store ptr %this, ptr %this.addr, align 8
  %this1 = load ptr, ptr %this.addr, align 8
  %m_afid = getelementptr inbounds %class.bv_recognizers, ptr %this1, i32 0, i32 0
  %0 = load i32, ptr %m_afid, align 4
  ret i32 %0
}

; Function Attrs: mustprogress uwtable
define linkonce_odr hidden noundef ptr @_ZN7bv_util9mk_concatEjPKP4expr(ptr noundef nonnull align 8 dereferenceable(24) %this, i32 noundef %num, ptr noundef %args) #5 comdat align 2 {
entry:
  %this.addr = alloca ptr, align 8
  %num.addr = alloca i32, align 4
  %args.addr = alloca ptr, align 8
  store ptr %this, ptr %this.addr, align 8
  store i32 %num, ptr %num.addr, align 4
  store ptr %args, ptr %args.addr, align 8
  %this1 = load ptr, ptr %this.addr, align 8
  %m_manager = getelementptr inbounds %class.bv_util, ptr %this1, i32 0, i32 1
  %0 = load ptr, ptr %m_manager, align 8
  %call = call noundef i32 @_ZNK14bv_recognizers7get_fidEv(ptr noundef nonnull align 4 dereferenceable(4) %this1)
  %1 = load i32, ptr %num.addr, align 4
  %2 = load ptr, ptr %args.addr, align 8
  %call2 = call noundef ptr @_ZN11ast_manager6mk_appEiijPKP4expr(ptr noundef nonnull align 8 dereferenceable(976) %0, i32 noundef %call, i32 noundef 37, i32 noundef %1, ptr noundef %2)
  ret ptr %call2
}

; Function Attrs: mustprogress uwtable
define linkonce_odr hidden noundef ptr @_ZN7bv_util9mk_concatEP4exprS1_(ptr noundef nonnull align 8 dereferenceable(24) %this, ptr noundef %arg1, ptr noundef %arg2) #5 comdat align 2 {
entry:
  %this.addr = alloca ptr, align 8
  %arg1.addr = alloca ptr, align 8
  %arg2.addr = alloca ptr, align 8
  %args = alloca [2 x ptr], align 16
  store ptr %this, ptr %this.addr, align 8
  store ptr %arg1, ptr %arg1.addr, align 8
  store ptr %arg2, ptr %arg2.addr, align 8
  %this1 = load ptr, ptr %this.addr, align 8
  %arrayinit.begin = getelementptr inbounds [2 x ptr], ptr %args, i64 0, i64 0
  %0 = load ptr, ptr %arg1.addr, align 8
  store ptr %0, ptr %arrayinit.begin, align 8
  %arrayinit.element = getelementptr inbounds ptr, ptr %arrayinit.begin, i64 1
  %1 = load ptr, ptr %arg2.addr, align 8
  store ptr %1, ptr %arrayinit.element, align 8
  %arraydecay = getelementptr inbounds [2 x ptr], ptr %args, i64 0, i64 0
  %call = call noundef ptr @_ZN7bv_util9mk_concatEjPKP4expr(ptr noundef nonnull align 8 dereferenceable(24) %this1, i32 noundef 2, ptr noundef %arraydecay)
  ret ptr %call
}

; Function Attrs: mustprogress nounwind uwtable
define linkonce_odr hidden noundef ptr @_ZNK3euf5enode8get_exprEv(ptr noundef nonnull align 8 dereferenceable(176) %this) #4 comdat align 2 {
entry:
  %this.addr = alloca ptr, align 8
  store ptr %this, ptr %this.addr, align 8
  %this1 = load ptr, ptr %this.addr, align 8
  %m_expr = getelementptr inbounds %"class.euf::enode", ptr %this1, i32 0, i32 0
  %0 = load ptr, ptr %m_expr, align 8
  ret ptr %0
}

; Function Attrs: mustprogress uwtable
define hidden noundef ptr @_ZN3euf9bv_plugin9mk_concatEPNS_5enodeES2_(ptr noundef nonnull align 8 dereferenceable(80) %this, ptr noundef %lo, ptr noundef %hi) #5 align 2 {
entry:
  %this.addr = alloca ptr, align 8
  %lo.addr = alloca ptr, align 8
  %hi.addr = alloca ptr, align 8
  %args = alloca [2 x ptr], align 16
  store ptr %this, ptr %this.addr, align 8
  store ptr %lo, ptr %lo.addr, align 8
  store ptr %hi, ptr %hi.addr, align 8
  %this1 = load ptr, ptr %this.addr, align 8
  %arrayinit.begin = getelementptr inbounds [2 x ptr], ptr %args, i64 0, i64 0
  %0 = load ptr, ptr %lo.addr, align 8
  store ptr %0, ptr %arrayinit.begin, align 8
  %arrayinit.element = getelementptr inbounds ptr, ptr %arrayinit.begin, i64 1
  %1 = load ptr, ptr %hi.addr, align 8
  store ptr %1, ptr %arrayinit.element, align 8
  %bv = getelementptr inbounds %"class.euf::bv_plugin", ptr %this1, i32 0, i32 1
  %2 = load ptr, ptr %lo.addr, align 8
  %call = call noundef ptr @_ZNK3euf5enode8get_exprEv(ptr noundef nonnull align 8 dereferenceable(176) %2)
  %3 = load ptr, ptr %hi.addr, align 8
  %call2 = call noundef ptr @_ZNK3euf5enode8get_exprEv(ptr noundef nonnull align 8 dereferenceable(176) %3)
  %call3 = call noundef ptr @_ZN7bv_util9mk_concatEP4exprS1_(ptr noundef nonnull align 8 dereferenceable(24) %bv, ptr noundef %call, ptr noundef %call2)
  %arraydecay = getelementptr inbounds [2 x ptr], ptr %args, i64 0, i64 0
  %call4 = call noundef ptr @_ZN3euf6plugin2mkEP4exprjPKPNS_5enodeE(ptr noundef nonnull align 8 dereferenceable(16) %this1, ptr noundef %call3, i32 noundef 2, ptr noundef %arraydecay)
  ret ptr %call4
}