; Function Attrs: mustprogress uwtable
define hidden noundef ptr @_ZN3euf9bv_plugin9mk_concatEPNS_5enodeES2_(ptr noundef nonnull align 8 dereferenceable(80) %this, ptr noundef %lo, ptr noundef %hi) local_unnamed_addr #3 align 2 {
entry:
  %args.i = alloca [2 x ptr], align 16
  %args = alloca [2 x ptr], align 16
  store ptr %lo, ptr %args, align 16
  %arrayinit.element = getelementptr inbounds i8, ptr %args, i64 8
  store ptr %hi, ptr %arrayinit.element, align 8
  %bv = getelementptr inbounds i8, ptr %this, i64 16
  %0 = load ptr, ptr %lo, align 8
  %1 = load ptr, ptr %hi, align 8
  call void @llvm.lifetime.start.p0(i64 16, ptr nonnull %args.i)
  store ptr %0, ptr %args.i, align 16
  %arrayinit.element.i = getelementptr inbounds i8, ptr %args.i, i64 8
  store ptr %1, ptr %arrayinit.element.i, align 8
  %m_manager.i.i = getelementptr inbounds i8, ptr %this, i64 24
  %2 = load ptr, ptr %m_manager.i.i, align 8
  %3 = load i32, ptr %bv, align 8
  %call2.i.i = call noundef ptr @_ZN11ast_manager6mk_appEiijPKP4expr(ptr noundef nonnull align 8 dereferenceable(976) %2, i32 noundef %3, i32 noundef 37, i32 noundef 2, ptr noundef nonnull %args.i)
  call void @llvm.lifetime.end.p0(i64 16, ptr nonnull %args.i)
  %call4 = call noundef ptr @_ZN3euf6plugin2mkEP4exprjPKPNS_5enodeE(ptr noundef nonnull align 8 dereferenceable(16) %this, ptr noundef %call2.i.i, i32 noundef 2, ptr noundef nonnull %args)
  ret ptr %call4
}